; Function Attrs: null_pointer_is_valid sspstrong uwtable
define internal i32 @glusterfs_gfs3_3_op_rename_call(ptr noundef %0, ptr readnone captures(none) %1, ptr noundef %2, ptr readnone captures(none) %3) #0 {
  %5 = load i32, ptr @hf_glusterfs_oldgfid, align 4
  %6 = tail call ptr @proto_tree_add_item(ptr noundef %2, i32 noundef %5, ptr noundef %0, i32 noundef 0, i32 noundef 16, i32 noundef 0)
  %7 = load i32, ptr @hf_glusterfs_newgfid, align 4
  %8 = tail call ptr @proto_tree_add_item(ptr noundef %2, i32 noundef %7, ptr noundef %0, i32 noundef 16, i32 noundef 16, i32 noundef 0)
  %9 = load i32, ptr @hf_glusterfs_oldbname, align 4
  %10 = tail call i32 @dissect_rpc_string(ptr noundef %0, ptr noundef %2, i32 noundef %9, i32 noundef 32, ptr noundef null)
  %11 = load i32, ptr @hf_glusterfs_newbname, align 4
  %12 = tail call i32 @dissect_rpc_string(ptr noundef %0, ptr noundef %2, i32 noundef %11, i32 noundef %10, ptr noundef null)
  %13 = load i32, ptr @hf_glusterfs_dict, align 4
  %14 = tail call i32 @gluster_rpc_dissect_dict(ptr noundef %2, ptr noundef %0, i32 noundef %13, i32 noundef %12)
  ret i32 %14
}